target datalayout = "e-m:e-p270:32:32-p271:32:32-p272:64:64-i64:64-i128:128-f80:128-n8:16:32:64-S128"
target triple = "x86_64-pc-linux-gnu"

%struct.ParseState = type { ptr, ptr, i32, i32, ptr, ptr, ptr, ptr, ptr, ptr, i8, ptr, ptr, ptr, ptr, ptr, ptr, i8, ptr, i32, i32, ptr, ptr, i8, i8, ptr, i8, i8, i8, i8, i8, ptr, ptr, ptr, ptr, ptr, ptr }
%struct.Query = type { i32, i32, i32, i64, i8, ptr, i32, i8, i8, i8, i8, i8, i8, i8, i8, i8, i8, i8, ptr, ptr, ptr, ptr, ptr, i32, ptr, ptr, i32, ptr, ptr, ptr, ptr, ptr, i8, ptr, ptr, ptr, ptr, ptr, ptr, ptr, i32, ptr, ptr, ptr, ptr, i32, i32 }
%struct.Node = type { i32 }
%struct.List = type { i32, i32, i32, ptr, [0 x %union.ListCell] }
%union.ListCell = type { ptr }
%struct.TargetEntry = type { %struct.Expr, ptr, i16, ptr, i32, i32, i16, i8 }
%struct.Expr = type { i32 }
%struct.ForBothState = type { ptr, ptr, i32 }
%struct.SetOperationStmt = type { i32, i32, i8, ptr, ptr, ptr, ptr, ptr, ptr }
%struct.RangeTblRef = type { i32, i32 }
%struct.RangeTblEntry = type { i32, ptr, ptr, i32, i32, i8, i8, i32, i32, ptr, ptr, i8, i32, i32, ptr, ptr, ptr, ptr, ptr, i8, ptr, ptr, ptr, i32, i8, ptr, ptr, ptr, ptr, double, ptr, i8, i8, ptr }

; Function Attrs: inlinehint nounwind uwtable
define internal ptr @list_nth_cell(ptr noundef %0, i32 noundef %1) #3 {
  %3 = alloca ptr, align 8
  %4 = alloca i32, align 4
  store ptr %0, ptr %3, align 8
  store i32 %1, ptr %4, align 4
  %5 = load ptr, ptr %3, align 8
  %6 = getelementptr inbounds nuw %struct.List, ptr %5, i32 0, i32 3
  %7 = load ptr, ptr %6, align 8
  %8 = load i32, ptr %4, align 4
  %9 = sext i32 %8 to i64
  %10 = getelementptr inbounds %union.ListCell, ptr %7, i64 %9
  ret ptr %10
}

; Function Attrs: inlinehint nounwind uwtable
define internal ptr @list_nth(ptr noundef %0, i32 noundef %1) #3 {
  %3 = alloca ptr, align 8
  %4 = alloca i32, align 4
  store ptr %0, ptr %3, align 8
  store i32 %1, ptr %4, align 4
  %5 = load ptr, ptr %3, align 8
  %6 = load i32, ptr %4, align 4
  %7 = call ptr @list_nth_cell(ptr noundef %5, i32 noundef %6)
  %8 = load ptr, ptr %7, align 8
  ret ptr %8
}

; Function Attrs: nounwind uwtable
define internal void @determineRecursiveColTypes(ptr noundef %0, ptr noundef %1, ptr noundef %2) #0 {
  %4 = alloca ptr, align 8
  %5 = alloca ptr, align 8
  %6 = alloca ptr, align 8
  %7 = alloca ptr, align 8
  %8 = alloca i32, align 4
  %9 = alloca ptr, align 8
  %10 = alloca ptr, align 8
  %11 = alloca ptr, align 8
  %12 = alloca ptr, align 8
  %13 = alloca i32, align 4
  %14 = alloca %struct.ForBothState, align 8
  %15 = alloca ptr, align 8
  %16 = alloca ptr, align 8
  %17 = alloca ptr, align 8
  %18 = alloca ptr, align 8
  store ptr %0, ptr %4, align 8
  store ptr %1, ptr %5, align 8
  store ptr %2, ptr %6, align 8
  call void @llvm.lifetime.start.p0(i64 8, ptr %7) #8
  call void @llvm.lifetime.start.p0(i64 4, ptr %8) #8
  call void @llvm.lifetime.start.p0(i64 8, ptr %9) #8
  call void @llvm.lifetime.start.p0(i64 8, ptr %10) #8
  call void @llvm.lifetime.start.p0(i64 8, ptr %11) #8
  call void @llvm.lifetime.start.p0(i64 8, ptr %12) #8
  call void @llvm.lifetime.start.p0(i64 4, ptr %13) #8
  %19 = load ptr, ptr %5, align 8
  store ptr %19, ptr %7, align 8
  br label %20

20:                                               ; preds = %30, %3
  %21 = load ptr, ptr %7, align 8
  %22 = icmp ne ptr %21, null
  br i1 %22, label %23, label %28

23:                                               ; preds = %20
  %24 = load ptr, ptr %7, align 8
  %25 = getelementptr inbounds nuw %struct.Node, ptr %24, i32 0, i32 0
  %26 = load i32, ptr %25, align 4
  %27 = icmp eq i32 %26, 142
  br label %28

28:                                               ; preds = %23, %20
  %29 = phi i1 [ false, %20 ], [ %27, %23 ]
  br i1 %29, label %30, label %34

30:                                               ; preds = %28
  %31 = load ptr, ptr %7, align 8
  %32 = getelementptr inbounds nuw %struct.SetOperationStmt, ptr %31, i32 0, i32 3
  %33 = load ptr, ptr %32, align 8
  store ptr %33, ptr %7, align 8
  br label %20, !llvm.loop !41

34:                                               ; preds = %28
  %35 = load ptr, ptr %7, align 8
  %36 = getelementptr inbounds nuw %struct.RangeTblRef, ptr %35, i32 0, i32 1
  %37 = load i32, ptr %36, align 4
  store i32 %37, ptr %8, align 4
  %38 = load ptr, ptr %4, align 8
  %39 = getelementptr inbounds nuw %struct.ParseState, ptr %38, i32 0, i32 4
  %40 = load ptr, ptr %39, align 8
  %41 = load i32, ptr %8, align 4
  %42 = sub i32 %41, 1
  %43 = call ptr @list_nth(ptr noundef %40, i32 noundef %42)
  %44 = getelementptr inbounds nuw %struct.RangeTblEntry, ptr %43, i32 0, i32 10
  %45 = load ptr, ptr %44, align 8
  store ptr %45, ptr %9, align 8
  store ptr null, ptr %10, align 8
  store i32 1, ptr %13, align 4
  call void @llvm.lifetime.start.p0(i64 24, ptr %14) #8
  %46 = getelementptr inbounds nuw %struct.ForBothState, ptr %14, i32 0, i32 0
  %47 = load ptr, ptr %6, align 8
  store ptr %47, ptr %46, align 8
  %48 = getelementptr inbounds nuw %struct.ForBothState, ptr %14, i32 0, i32 1
  %49 = load ptr, ptr %9, align 8
  %50 = getelementptr inbounds nuw %struct.Query, ptr %49, i32 0, i32 25
  %51 = load ptr, ptr %50, align 8
  store ptr %51, ptr %48, align 8
  %52 = getelementptr inbounds nuw %struct.ForBothState, ptr %14, i32 0, i32 2
  store i32 0, ptr %52, align 8
  %53 = getelementptr i8, ptr %14, i64 20
  call void @llvm.memset.p0.i64(ptr align 4 %53, i8 0, i64 4, i1 false)
  br label %54

54:                                               ; preds = %129, %34
  %55 = getelementptr inbounds nuw %struct.ForBothState, ptr %14, i32 0, i32 0
  %56 = load ptr, ptr %55, align 8
  %57 = icmp ne ptr %56, null
  br i1 %57, label %58, label %75

58:                                               ; preds = %54
  %59 = getelementptr inbounds nuw %struct.ForBothState, ptr %14, i32 0, i32 2
  %60 = load i32, ptr %59, align 8
  %61 = getelementptr inbounds nuw %struct.ForBothState, ptr %14, i32 0, i32 0
  %62 = load ptr, ptr %61, align 8
  %63 = getelementptr inbounds nuw %struct.List, ptr %62, i32 0, i32 1
  %64 = load i32, ptr %63, align 4
  %65 = icmp slt i32 %60, %64
  br i1 %65, label %66, label %75

66:                                               ; preds = %58
  %67 = getelementptr inbounds nuw %struct.ForBothState, ptr %14, i32 0, i32 0
  %68 = load ptr, ptr %67, align 8
  %69 = getelementptr inbounds nuw %struct.List, ptr %68, i32 0, i32 3
  %70 = load ptr, ptr %69, align 8
  %71 = getelementptr inbounds nuw %struct.ForBothState, ptr %14, i32 0, i32 2
  %72 = load i32, ptr %71, align 8
  %73 = sext i32 %72 to i64
  %74 = getelementptr inbounds %union.ListCell, ptr %70, i64 %73
  br label %76

75:                                               ; preds = %58, %54
  br label %76

76:                                               ; preds = %75, %66
  %77 = phi ptr [ %74, %66 ], [ null, %75 ]
  store ptr %77, ptr %12, align 8
  %78 = getelementptr inbounds nuw %struct.ForBothState, ptr %14, i32 0, i32 1
  %79 = load ptr, ptr %78, align 8
  %80 = icmp ne ptr %79, null
  br i1 %80, label %81, label %98

81:                                               ; preds = %76
  %82 = getelementptr inbounds nuw %struct.ForBothState, ptr %14, i32 0, i32 2
  %83 = load i32, ptr %82, align 8
  %84 = getelementptr inbounds nuw %struct.ForBothState, ptr %14, i32 0, i32 1
  %85 = load ptr, ptr %84, align 8
  %86 = getelementptr inbounds nuw %struct.List, ptr %85, i32 0, i32 1
  %87 = load i32, ptr %86, align 4
  %88 = icmp slt i32 %83, %87
  br i1 %88, label %89, label %98

89:                                               ; preds = %81
  %90 = getelementptr inbounds nuw %struct.ForBothState, ptr %14, i32 0, i32 1
  %91 = load ptr, ptr %90, align 8
  %92 = getelementptr inbounds nuw %struct.List, ptr %91, i32 0, i32 3
  %93 = load ptr, ptr %92, align 8
  %94 = getelementptr inbounds nuw %struct.ForBothState, ptr %14, i32 0, i32 2
  %95 = load i32, ptr %94, align 8
  %96 = sext i32 %95 to i64
  %97 = getelementptr inbounds %union.ListCell, ptr %93, i64 %96
  br label %99

98:                                               ; preds = %81, %76
  br label %99

99:                                               ; preds = %98, %89
  %100 = phi ptr [ %97, %89 ], [ null, %98 ]
  store ptr %100, ptr %11, align 8
  %101 = load ptr, ptr %12, align 8
  %102 = icmp ne ptr %101, null
  br i1 %102, label %103, label %106

103:                                              ; preds = %99
  %104 = load ptr, ptr %11, align 8
  %105 = icmp ne ptr %104, null
  br label %106

106:                                              ; preds = %103, %99
  %107 = phi i1 [ false, %99 ], [ %105, %103 ]
  br i1 %107, label %109, label %108

108:                                              ; preds = %106
  call void @llvm.lifetime.end.p0(i64 24, ptr %14) #8
  br label %133

109:                                              ; preds = %106
  call void @llvm.lifetime.start.p0(i64 8, ptr %15) #8
  %110 = load ptr, ptr %12, align 8
  %111 = load ptr, ptr %110, align 8
  store ptr %111, ptr %15, align 8
  call void @llvm.lifetime.start.p0(i64 8, ptr %16) #8
  %112 = load ptr, ptr %11, align 8
  %113 = load ptr, ptr %112, align 8
  store ptr %113, ptr %16, align 8
  call void @llvm.lifetime.start.p0(i64 8, ptr %17) #8
  call void @llvm.lifetime.start.p0(i64 8, ptr %18) #8
  %114 = load ptr, ptr %16, align 8
  %115 = getelementptr inbounds nuw %struct.TargetEntry, ptr %114, i32 0, i32 3
  %116 = load ptr, ptr %115, align 8
  %117 = call ptr @pstrdup(ptr noundef %116)
  store ptr %117, ptr %17, align 8
  %118 = load ptr, ptr %15, align 8
  %119 = getelementptr inbounds nuw %struct.TargetEntry, ptr %118, i32 0, i32 1
  %120 = load ptr, ptr %119, align 8
  %121 = load i32, ptr %13, align 4
  %122 = add i32 %121, 1
  store i32 %122, ptr %13, align 4
  %123 = trunc i32 %121 to i16
  %124 = load ptr, ptr %17, align 8
  %125 = call ptr @makeTargetEntry(ptr noundef %120, i16 noundef signext %123, ptr noundef %124, i1 noundef zeroext false)
  store ptr %125, ptr %18, align 8
  %126 = load ptr, ptr %10, align 8
  %127 = load ptr, ptr %18, align 8
  %128 = call ptr @lappend(ptr noundef %126, ptr noundef %127)
  store ptr %128, ptr %10, align 8
  call void @llvm.lifetime.end.p0(i64 8, ptr %18) #8
  call void @llvm.lifetime.end.p0(i64 8, ptr %17) #8
  call void @llvm.lifetime.end.p0(i64 8, ptr %16) #8
  call void @llvm.lifetime.end.p0(i64 8, ptr %15) #8
  br label %129

129:                                              ; preds = %109
  %130 = getelementptr inbounds nuw %struct.ForBothState, ptr %14, i32 0, i32 2
  %131 = load i32, ptr %130, align 8
  %132 = add i32 %131, 1
  store i32 %132, ptr %130, align 8
  br label %54, !llvm.loop !42

133:                                              ; preds = %108
  %134 = load ptr, ptr %4, align 8
  %135 = load ptr, ptr %4, align 8
  %136 = getelementptr inbounds nuw %struct.ParseState, ptr %135, i32 0, i32 13
  %137 = load ptr, ptr %136, align 8
  %138 = load ptr, ptr %10, align 8
  call void @analyzeCTETargetList(ptr noundef %134, ptr noundef %137, ptr noundef %138)
  call void @llvm.lifetime.end.p0(i64 4, ptr %13) #8
  call void @llvm.lifetime.end.p0(i64 8, ptr %12) #8
  call void @llvm.lifetime.end.p0(i64 8, ptr %11) #8
  call void @llvm.lifetime.end.p0(i64 8, ptr %10) #8
  call void @llvm.lifetime.end.p0(i64 8, ptr %9) #8
  call void @llvm.lifetime.end.p0(i64 4, ptr %8) #8
  call void @llvm.lifetime.end.p0(i64 8, ptr %7) #8
  ret void
}