; Function Attrs: nounwind uwtable
define internal fastcc void @determineRecursiveColTypes(ptr noundef %0, ptr noundef readonly captures(address) %1, ptr noundef readonly captures(address_is_null) %2) unnamed_addr #0 {
  %.not53 = icmp ne ptr %1, null
  tail call void @llvm.assume(i1 %.not53)
  %4 = load i32, ptr %1, align 4
  %5 = icmp eq i32 %4, 142
  br i1 %5, label %.lr.ph, label %.critedge

.lr.ph:                                           ; preds = %3, %.lr.ph
  %.sink54 = phi ptr [ %7, %.lr.ph ], [ %1, %3 ]
  %6 = getelementptr inbounds nuw i8, ptr %.sink54, i64 16
  %7 = load ptr, ptr %6, align 8, !nonnull !4, !noundef !4
  %8 = load i32, ptr %7, align 4
  %9 = icmp eq i32 %8, 142
  br i1 %9, label %.lr.ph, label %.critedge

.critedge:                                        ; preds = %.lr.ph, %3
  %.sink.lcssa = phi ptr [ %1, %3 ], [ %7, %.lr.ph ]
  %10 = getelementptr inbounds nuw i8, ptr %.sink.lcssa, i64 4
  %11 = load i32, ptr %10, align 4
  %12 = getelementptr inbounds nuw i8, ptr %0, i64 24
  %13 = load ptr, ptr %12, align 8
  %14 = add i32 %11, -1
  %15 = getelementptr i8, ptr %13, i64 16
  %.val = load ptr, ptr %15, align 8
  %16 = sext i32 %14 to i64
  %17 = getelementptr inbounds %union.ListCell, ptr %.val, i64 %16
  %18 = load ptr, ptr %17, align 8
  %19 = getelementptr inbounds nuw i8, ptr %18, i64 56
  %20 = load ptr, ptr %19, align 8
  %21 = getelementptr inbounds nuw i8, ptr %20, i64 112
  %22 = load ptr, ptr %21, align 8
  %23 = getelementptr inbounds nuw i8, ptr %22, i64 4
  %.not35 = icmp eq ptr %2, null
  %.not36 = icmp eq ptr %22, null
  %24 = getelementptr inbounds nuw i8, ptr %2, i64 4
  %25 = getelementptr inbounds nuw i8, ptr %2, i64 16
  %26 = getelementptr inbounds nuw i8, ptr %22, i64 16
  %brmerge = or i1 %.not36, %.not35
  br i1 %brmerge, label %.thread, label %.critedge.split.split

.critedge.split.split:                            ; preds = %.critedge, %45
  %indvars.iv = phi i64 [ %indvars.iv.next, %45 ], [ 0, %.critedge ]
  %.030 = phi i16 [ %54, %45 ], [ 1, %.critedge ]
  %.029 = phi ptr [ %56, %45 ], [ null, %.critedge ]
  %27 = load i32, ptr %24, align 4
  %28 = sext i32 %27 to i64
  %29 = icmp slt i64 %indvars.iv, %28
  br i1 %29, label %30, label %33

30:                                               ; preds = %.critedge.split.split
  %31 = load ptr, ptr %25, align 8
  %32 = getelementptr inbounds nuw %union.ListCell, ptr %31, i64 %indvars.iv
  br label %33

33:                                               ; preds = %.critedge.split.split, %30
  %34 = phi ptr [ %32, %30 ], [ null, %.critedge.split.split ]
  %35 = load i32, ptr %23, align 4
  %36 = sext i32 %35 to i64
  %37 = icmp slt i64 %indvars.iv, %36
  br i1 %37, label %38, label %.thread

38:                                               ; preds = %33
  %39 = load ptr, ptr %26, align 8
  %40 = icmp ne ptr %34, null
  %41 = icmp ne ptr %39, null
  %42 = select i1 %40, i1 %41, i1 false
  br i1 %42, label %45, label %.thread

.thread:                                          ; preds = %33, %38, %.critedge
  %.us-phi = phi ptr [ null, %.critedge ], [ %.029, %38 ], [ %.029, %33 ]
  %43 = getelementptr inbounds nuw i8, ptr %0, i64 96
  %44 = load ptr, ptr %43, align 8
  tail call void @analyzeCTETargetList(ptr noundef %0, ptr noundef %44, ptr noundef %.us-phi) #11
  ret void

45:                                               ; preds = %38
  %46 = getelementptr inbounds nuw %union.ListCell, ptr %39, i64 %indvars.iv
  %47 = load ptr, ptr %34, align 8
  %48 = load ptr, ptr %46, align 8
  %49 = getelementptr inbounds nuw i8, ptr %48, i64 24
  %50 = load ptr, ptr %49, align 8
  %51 = tail call ptr @pstrdup(ptr noundef %50) #11
  %52 = getelementptr inbounds nuw i8, ptr %47, i64 8
  %53 = load ptr, ptr %52, align 8
  %54 = add i16 %.030, 1
  %55 = tail call ptr @makeTargetEntry(ptr noundef %53, i16 noundef signext %.030, ptr noundef %51, i1 noundef zeroext false) #11
  %56 = tail call ptr @lappend(ptr noundef %.029, ptr noundef %55) #11
  %indvars.iv.next = add nuw nsw i64 %indvars.iv, 1
  br label %.critedge.split.split, !llvm.loop !23
}